; Function Attrs: nounwind uwtable
define internal void @logcbfn(i32 noundef %0, ptr noundef %1) #0 {
  %3 = getelementptr inbounds nuw i8, ptr %1, i64 648
  %4 = load ptr, ptr %3, align 8, !tbaa !56
  %.not = icmp eq ptr %4, null
  br i1 %.not, label %8, label %5

5:                                                ; preds = %2
  %6 = getelementptr inbounds nuw i8, ptr %1, i64 656
  %7 = load ptr, ptr %6, align 8, !tbaa !305
  tail call void %4(i32 noundef %0, ptr noundef %7) #19
  br label %8

8:                                                ; preds = %2, %5
  %9 = tail call i32 @pthread_mutex_lock(ptr noundef nonnull %1) #19
  %10 = icmp eq i32 %9, 35
  br i1 %10, label %11, label %pmix_obj_update.exit

11:                                               ; preds = %8
  %12 = tail call ptr @__errno_location() #22
  store i32 35, ptr %12, align 4, !tbaa !23
  tail call void @perror(ptr noundef nonnull @.str.86) #23
  tail call void @abort() #24
  unreachable

pmix_obj_update.exit:                             ; preds = %8
  %13 = getelementptr inbounds nuw i8, ptr %1, i64 48
  %14 = load i32, ptr %13, align 8, !tbaa !78
  %15 = add nsw i32 %14, -1
  store i32 %15, ptr %13, align 8, !tbaa !78
  %16 = tail call i32 @pthread_mutex_unlock(ptr noundef nonnull %1) #19
  %17 = icmp eq i32 %15, 0
  br i1 %17, label %18, label %32

18:                                               ; preds = %pmix_obj_update.exit
  %19 = getelementptr inbounds nuw i8, ptr %1, i64 40
  %20 = load ptr, ptr %19, align 8, !tbaa !77
  %21 = getelementptr inbounds nuw i8, ptr %20, i64 48
  %22 = load ptr, ptr %21, align 8, !tbaa !88
  %23 = load ptr, ptr %22, align 8, !tbaa !80
  %.not6.i = icmp eq ptr %23, null
  br i1 %.not6.i, label %pmix_obj_run_destructors.exit, label %.lr.ph.i

.lr.ph.i:                                         ; preds = %18, %.lr.ph.i
  %24 = phi ptr [ %26, %.lr.ph.i ], [ %23, %18 ]
  %.07.i = phi ptr [ %25, %.lr.ph.i ], [ %22, %18 ]
  tail call void %24(ptr noundef nonnull %1) #19
  %25 = getelementptr inbounds nuw i8, ptr %.07.i, i64 8
  %26 = load ptr, ptr %25, align 8, !tbaa !80
  %.not.i = icmp eq ptr %26, null
  br i1 %.not.i, label %pmix_obj_run_destructors.exit, label %.lr.ph.i, !llvm.loop !89

pmix_obj_run_destructors.exit:                    ; preds = %.lr.ph.i, %18
  %27 = getelementptr inbounds nuw i8, ptr %1, i64 96
  %28 = load ptr, ptr %27, align 8, !tbaa !90
  %.not11 = icmp eq ptr %28, null
  br i1 %.not11, label %31, label %29

29:                                               ; preds = %pmix_obj_run_destructors.exit
  %30 = getelementptr inbounds nuw i8, ptr %1, i64 56
  tail call void %28(ptr noundef nonnull %30, ptr noundef nonnull %1) #19
  br label %32

31:                                               ; preds = %pmix_obj_run_destructors.exit
  tail call void @free(ptr noundef nonnull %1) #19
  br label %32

32:                                               ; preds = %29, %31, %pmix_obj_update.exit
  ret void
}